(dp1
S'OriginalConfig'
p2
ccopy_reg
_reconstructor
p3
(cWMCore.Configuration
Configuration
p4
c__builtin__
object
p5
NtRp6
(dp7
S'Site'
p8
g3
(cWMCore.Configuration
ConfigSection
p9
g5
NtRp10
(dp11
S'_internal_skipChecks'
p12
I00
sS'_internal_documentation'
p13
S''
sS'_internal_settings'
p14
c__builtin__
set
p15
((lp16
S'storageSite'
p17
atRp18
sS'_internal_name'
p19
g8
sS'_internal_docstrings'
p20
(dp21
sS'_internal_children'
p22
g15
((ltRp23
sg17
S'T2_CH_CERN'
p24
sS'_internal_parent_ref'
p25
NsbsS'_internal_sections'
p26
(lp27
S'General'
p28
aS'JobType'
p29
aS'Data'
p30
ag8
aS'User'
p31
aS'Debug'
p32
asg28
g3
(g9
g5
NtRp33
(dp34
S'transferLogs'
p35
I01
sg12
I00
sg13
S''
sg14
g15
((lp36
g35
aS'transferOutputs'
p37
aS'workArea'
p38
aS'requestName'
p39
atRp40
sg19
g28
sg20
(dp41
sg37
I01
sg22
g15
((ltRp42
sg39
S'monoZ_01Jan2017_DoubleMuon_Run2016D-03Feb2017-v1'
p43
sg25
Nsg38
S'.'
sbsS'_internal_webapps'
p44
(lp45
sg31
g3
(g9
g5
NtRp46
(dp47
g12
I00
sg13
S''
sg14
g15
((ltRp48
sg19
g31
sg20
(dp49
sg22
g15
((ltRp50
sg25
NsbsS'_internal_components'
p51
(lp52
sg32
g3
(g9
g5
NtRp53
(dp54
g12
I00
sg13
S''
sg14
g15
((ltRp55
sg19
g32
sg20
(dp56
sg22
g15
((ltRp57
sg25
Nsbsg30
g3
(g9
g5
NtRp58
(dp59
S'inputDataset'
p60
S'/DoubleMuon/Run2016D-03Feb2017-v1/MINIAOD'
p61
sS'ignoreLocality'
p62
I00
sS'outputDatasetTag'
p63
S'Run2016D-03Feb2017-v1'
p64
sg12
I00
sS'unitsPerJob'
p65
I200
sg13
S''
sg14
g15
((lp66
g60
ag63
aS'publication'
p67
ag65
ag62
aS'inputDBS'
p68
aS'splitting'
p69
aS'useParent'
p70
aS'outLFNDirBase'
p71
aS'lumiMask'
p72
atRp73
sg71
S'/store/user/cfreer/monoZ_2016_data_two_Lepton_final/'
p74
sg19
g30
sg69
S'LumiBased'
p75
sg20
(dp76
sg70
I00
sg22
g15
((ltRp77
sg68
S'global'
p78
sg25
Nsg72
S'/afs/cern.ch/cms/CAF/CMSCOMM/COMM_DQM/certification/Collisions16/13TeV/ReReco/Final/Cert_271036-284044_13TeV_23Sep2016ReReco_Collisions16_JSON.txt'
p79
sg67
I00
sbsg29
g3
(g9
g5
NtRp80
(dp81
S'numCores'
p82
I1
sg12
I00
sg13
S''
sg14
g15
((lp83
g82
aS'psetName'
p84
aS'pluginName'
p85
aS'pyCfgParams'
p86
atRp87
sg19
g29
sg85
S'ANALYSIS'
p88
sg20
(dp89
sg86
(lp90
S'isMC=0'
p91
aS'crabDataset=/DoubleMuon/Run2016D-03Feb2017-v1/MINIAOD'
p92
aS'gitversion="af63a82*"'
p93
aS'filterTriggers=1'
p94
asg22
g15
((ltRp95
sg84
S'../test/eventTuples.py'
p96
sg25
NsbsbsS'voGroup'
p97
S''
sS'Server'
p98
S'cmsweb.cern.ch'
p99
sS'instance'
p100
S'prod'
p101
sS'RequestName'
p102
V180923_170133:cfreer_crab_monoZ_01Jan2017_DoubleMuon_Run2016D-03Feb2017-v1
p103
sS'voRole'
p104
S'NULL'
p105
sS'Port'
p106
S''
s.